target datalayout = "e-m:e-p270:32:32-p271:32:32-p272:64:64-i64:64-i128:128-f80:128-n8:16:32:64-S128"
target triple = "x86_64-pc-linux-gnu"

%struct.gmx_ana_index_t = type { i32, ptr, i32 }

; Function Attrs: mustprogress nounwind uwtable
define void @_Z31gmx_ana_index_remove_duplicatesP15gmx_ana_index_t(ptr noundef %0) #1 {
  %2 = alloca ptr, align 8
  %3 = alloca i32, align 4
  %4 = alloca i32, align 4
  store ptr %0, ptr %2, align 8, !tbaa !232
  call void @llvm.lifetime.start.p0(i64 4, ptr %3) #19
  store i32 0, ptr %3, align 4, !tbaa !114
  call void @llvm.lifetime.start.p0(i64 4, ptr %4) #19
  store i32 0, ptr %4, align 4, !tbaa !114
  br label %5

5:                                                ; preds = %49, %1
  %6 = load i32, ptr %4, align 4, !tbaa !114
  %7 = load ptr, ptr %2, align 8, !tbaa !232
  %8 = getelementptr inbounds nuw %struct.gmx_ana_index_t, ptr %7, i32 0, i32 0
  %9 = load i32, ptr %8, align 8, !tbaa !234
  %10 = icmp slt i32 %6, %9
  br i1 %10, label %12, label %11

11:                                               ; preds = %5
  call void @llvm.lifetime.end.p0(i64 4, ptr %4) #19
  br label %52

12:                                               ; preds = %5
  %13 = load i32, ptr %4, align 4, !tbaa !114
  %14 = icmp eq i32 %13, 0
  br i1 %14, label %32, label %15

15:                                               ; preds = %12
  %16 = load ptr, ptr %2, align 8, !tbaa !232
  %17 = getelementptr inbounds nuw %struct.gmx_ana_index_t, ptr %16, i32 0, i32 1
  %18 = load ptr, ptr %17, align 8, !tbaa !236
  %19 = load i32, ptr %4, align 4, !tbaa !114
  %20 = sub nsw i32 %19, 1
  %21 = sext i32 %20 to i64
  %22 = getelementptr inbounds i32, ptr %18, i64 %21
  %23 = load i32, ptr %22, align 4, !tbaa !114
  %24 = load ptr, ptr %2, align 8, !tbaa !232
  %25 = getelementptr inbounds nuw %struct.gmx_ana_index_t, ptr %24, i32 0, i32 1
  %26 = load ptr, ptr %25, align 8, !tbaa !236
  %27 = load i32, ptr %4, align 4, !tbaa !114
  %28 = sext i32 %27 to i64
  %29 = getelementptr inbounds i32, ptr %26, i64 %28
  %30 = load i32, ptr %29, align 4, !tbaa !114
  %31 = icmp ne i32 %23, %30
  br i1 %31, label %32, label %48

32:                                               ; preds = %15, %12
  %33 = load ptr, ptr %2, align 8, !tbaa !232
  %34 = getelementptr inbounds nuw %struct.gmx_ana_index_t, ptr %33, i32 0, i32 1
  %35 = load ptr, ptr %34, align 8, !tbaa !236
  %36 = load i32, ptr %4, align 4, !tbaa !114
  %37 = sext i32 %36 to i64
  %38 = getelementptr inbounds i32, ptr %35, i64 %37
  %39 = load i32, ptr %38, align 4, !tbaa !114
  %40 = load ptr, ptr %2, align 8, !tbaa !232
  %41 = getelementptr inbounds nuw %struct.gmx_ana_index_t, ptr %40, i32 0, i32 1
  %42 = load ptr, ptr %41, align 8, !tbaa !236
  %43 = load i32, ptr %3, align 4, !tbaa !114
  %44 = sext i32 %43 to i64
  %45 = getelementptr inbounds i32, ptr %42, i64 %44
  store i32 %39, ptr %45, align 4, !tbaa !114
  %46 = load i32, ptr %3, align 4, !tbaa !114
  %47 = add nsw i32 %46, 1
  store i32 %47, ptr %3, align 4, !tbaa !114
  br label %48

48:                                               ; preds = %32, %15
  br label %49

49:                                               ; preds = %48
  %50 = load i32, ptr %4, align 4, !tbaa !114
  %51 = add nsw i32 %50, 1
  store i32 %51, ptr %4, align 4, !tbaa !114
  br label %5, !llvm.loop !330

52:                                               ; preds = %11
  %53 = load i32, ptr %3, align 4, !tbaa !114
  %54 = load ptr, ptr %2, align 8, !tbaa !232
  %55 = getelementptr inbounds nuw %struct.gmx_ana_index_t, ptr %54, i32 0, i32 0
  store i32 %53, ptr %55, align 8, !tbaa !234
  call void @llvm.lifetime.end.p0(i64 4, ptr %3) #19
  ret void
}