; Function Attrs: mustprogress nofree norecurse nosync nounwind memory(readwrite, inaccessiblemem: none) uwtable
define void @_Z31gmx_ana_index_remove_duplicatesP15gmx_ana_index_t(ptr noundef captures(none) %0) local_unnamed_addr #20 {
  %2 = load i32, ptr %0, align 8, !tbaa !73
  %3 = icmp sgt i32 %2, 0
  br i1 %3, label %.lr.ph, label %._crit_edge

.lr.ph:                                           ; preds = %1
  %4 = getelementptr inbounds nuw i8, ptr %0, i64 8
  %.pre.pre = load ptr, ptr %4, align 8, !tbaa !108
  br label %5

._crit_edge:                                      ; preds = %18, %1
  %.014.lcssa = phi i32 [ 0, %1 ], [ %.1, %18 ]
  store i32 %.014.lcssa, ptr %0, align 8, !tbaa !73
  ret void

5:                                                ; preds = %.lr.ph, %18
  %6 = phi i32 [ %2, %.lr.ph ], [ %19, %18 ]
  %indvars.iv = phi i64 [ 0, %.lr.ph ], [ %indvars.iv.next, %18 ]
  %.01415 = phi i32 [ 0, %.lr.ph ], [ %.1, %18 ]
  %7 = icmp eq i64 %indvars.iv, 0
  br i1 %7, label %._crit_edge18, label %8

._crit_edge18:                                    ; preds = %5
  %.pre19 = load i32, ptr %.pre.pre, align 4, !tbaa !36
  br label %13

8:                                                ; preds = %5
  %9 = getelementptr i32, ptr %.pre.pre, i64 %indvars.iv
  %10 = getelementptr i8, ptr %9, i64 -4
  %11 = load i32, ptr %10, align 4, !tbaa !36
  %12 = load i32, ptr %9, align 4, !tbaa !36
  %.not = icmp eq i32 %11, %12
  br i1 %.not, label %18, label %13

13:                                               ; preds = %._crit_edge18, %8
  %14 = phi i32 [ %.pre19, %._crit_edge18 ], [ %12, %8 ]
  %15 = sext i32 %.01415 to i64
  %16 = getelementptr inbounds i32, ptr %.pre.pre, i64 %15
  store i32 %14, ptr %16, align 4, !tbaa !36
  %17 = add nsw i32 %.01415, 1
  %.pre20 = load i32, ptr %0, align 8, !tbaa !73
  br label %18

18:                                               ; preds = %8, %13
  %19 = phi i32 [ %.pre20, %13 ], [ %6, %8 ]
  %.1 = phi i32 [ %17, %13 ], [ %.01415, %8 ]
  %indvars.iv.next = add nuw nsw i64 %indvars.iv, 1
  %20 = sext i32 %19 to i64
  %21 = icmp slt i64 %indvars.iv.next, %20
  br i1 %21, label %5, label %._crit_edge, !llvm.loop !127
}